target datalayout = "e-m:e-p270:32:32-p271:32:32-p272:64:64-i64:64-i128:128-f80:128-n8:16:32:64-S128"
target triple = "x86_64-pc-linux-gnu"

%class.anon = type { i8 }
%"struct.google::protobuf::Message::ClassData" = type { ptr, ptr }

; Function Attrs: inlinehint mustprogress nounwind uwtable
define internal noundef ptr @"_ZZN6google8protobuf7Message9MergeFromERKS1_ENK3$_0cvPFvPS1_S3_EEv"(ptr noundef nonnull align 1 dereferenceable(1) %0) #6 align 2 {
  %2 = alloca ptr, align 8
  store ptr %0, ptr %2, align 8, !tbaa !14
  ret ptr @"_ZZN6google8protobuf7Message9MergeFromERKS1_EN3$_08__invokeEPS1_S3_"
}

; Function Attrs: mustprogress uwtable
define hidden void @_ZN6google8protobuf7Message9MergeFromERKS1_(ptr noundef nonnull align 8 dereferenceable(16) %0, ptr noundef nonnull align 8 dereferenceable(16) %1) unnamed_addr #4 align 2 {
  %3 = alloca ptr, align 8
  %4 = alloca ptr, align 8
  %5 = alloca ptr, align 8
  %6 = alloca ptr, align 8
  %7 = alloca ptr, align 8
  %8 = alloca %class.anon, align 1
  store ptr %0, ptr %3, align 8, !tbaa !3
  store ptr %1, ptr %4, align 8, !tbaa !3
  %9 = load ptr, ptr %3, align 8
  call void @llvm.lifetime.start.p0(i64 8, ptr %5) #3
  %10 = load ptr, ptr %9, align 8, !tbaa !8
  %11 = getelementptr inbounds ptr, ptr %10, i64 18
  %12 = load ptr, ptr %11, align 8
  %13 = call noundef ptr %12(ptr noundef nonnull align 8 dereferenceable(16) %9)
  store ptr %13, ptr %5, align 8, !tbaa !10
  call void @llvm.lifetime.start.p0(i64 8, ptr %6) #3
  %14 = load ptr, ptr %4, align 8, !tbaa !3
  %15 = load ptr, ptr %14, align 8, !tbaa !8
  %16 = getelementptr inbounds ptr, ptr %15, i64 18
  %17 = load ptr, ptr %16, align 8
  %18 = call noundef ptr %17(ptr noundef nonnull align 8 dereferenceable(16) %14)
  store ptr %18, ptr %6, align 8, !tbaa !10
  call void @llvm.lifetime.start.p0(i64 8, ptr %7) #3
  %19 = load ptr, ptr %5, align 8, !tbaa !10
  %20 = icmp ne ptr %19, null
  br i1 %20, label %21, label %25

21:                                               ; preds = %2
  %22 = load ptr, ptr %5, align 8, !tbaa !10
  %23 = getelementptr inbounds nuw %"struct.google::protobuf::Message::ClassData", ptr %22, i32 0, i32 1
  %24 = load ptr, ptr %23, align 8, !tbaa !12
  br label %26

25:                                               ; preds = %2
  br label %26

26:                                               ; preds = %25, %21
  %27 = phi ptr [ %24, %21 ], [ null, %25 ]
  store ptr %27, ptr %7, align 8, !tbaa !14
  %28 = load ptr, ptr %5, align 8, !tbaa !10
  %29 = icmp eq ptr %28, null
  br i1 %29, label %34, label %30

30:                                               ; preds = %26
  %31 = load ptr, ptr %5, align 8, !tbaa !10
  %32 = load ptr, ptr %6, align 8, !tbaa !10
  %33 = icmp ne ptr %31, %32
  br i1 %33, label %34, label %36

34:                                               ; preds = %30, %26
  call void @llvm.lifetime.start.p0(i64 1, ptr %8) #3
  %35 = call noundef ptr @"_ZZN6google8protobuf7Message9MergeFromERKS1_ENK3$_0cvPFvPS1_S3_EEv"(ptr noundef nonnull align 1 dereferenceable(1) %8) #3
  store ptr %35, ptr %7, align 8, !tbaa !14
  call void @llvm.lifetime.end.p0(i64 1, ptr %8) #3
  br label %36

36:                                               ; preds = %34, %30
  %37 = load ptr, ptr %7, align 8, !tbaa !14
  %38 = load ptr, ptr %4, align 8, !tbaa !3
  call void %37(ptr noundef %9, ptr noundef nonnull align 8 dereferenceable(16) %38)
  call void @llvm.lifetime.end.p0(i64 8, ptr %7) #3
  call void @llvm.lifetime.end.p0(i64 8, ptr %6) #3
  call void @llvm.lifetime.end.p0(i64 8, ptr %5) #3
  ret void
}