; Function Attrs: mustprogress uwtable
define hidden void @_ZN6google8protobuf7Message9MergeFromERKS1_(ptr noundef nonnull align 8 dereferenceable(16) %0, ptr noundef nonnull align 8 dereferenceable(16) %1) unnamed_addr #3 align 2 {
  %3 = load ptr, ptr %0, align 8, !tbaa !3
  %4 = getelementptr inbounds nuw i8, ptr %3, i64 144
  %5 = load ptr, ptr %4, align 8
  %6 = tail call noundef ptr %5(ptr noundef nonnull align 8 dereferenceable(16) %0)
  %7 = load ptr, ptr %1, align 8, !tbaa !3
  %8 = getelementptr inbounds nuw i8, ptr %7, i64 144
  %9 = load ptr, ptr %8, align 8
  %10 = tail call noundef ptr %9(ptr noundef nonnull align 8 dereferenceable(16) %1)
  %.not = icmp eq ptr %6, null
  br i1 %.not, label %.thread, label %11

11:                                               ; preds = %2
  %12 = getelementptr inbounds nuw i8, ptr %6, i64 8
  %13 = load ptr, ptr %12, align 8, !tbaa !6
  %.not10 = icmp eq ptr %6, %10
  br i1 %.not10, label %14, label %.thread

.thread:                                          ; preds = %2, %11
  br label %14

14:                                               ; preds = %11, %.thread
  %.0 = phi ptr [ @"_ZZN6google8protobuf7Message9MergeFromERKS1_EN3$_08__invokeEPS1_S3_", %.thread ], [ %13, %11 ]
  tail call void %.0(ptr noundef nonnull %0, ptr noundef nonnull align 8 dereferenceable(16) %1)
  ret void
}